target datalayout = "e-m:e-p270:32:32-p271:32:32-p272:64:64-i64:64-i128:128-f80:128-n8:16:32:64-S128"
target triple = "x86_64-pc-linux-gnu"

%struct.AVChannelLayout = type { i32, i32, %union.anon.1, ptr }
%union.anon.1 = type { i64 }
%struct.AVFilterContext = type { ptr, ptr, ptr, ptr, ptr, i32, ptr, ptr, i32, ptr, ptr, i32, i32, ptr, ptr, ptr, ptr, i32, ptr, i32, i32 }
%struct.HDCDContext = type { ptr, [2 x %struct.hdcd_state], i32, i32, i32, i32, i32, i32, i32, ptr, i32, i32, %struct.hdcd_detection_data }
%struct.hdcd_state = type { i64, i8, i8, i8, i32, i32, i32, i32, i32, i32, i32, i32, i32, i32, i32, [16 x i32], i32, i32, i32, i32 }
%struct.hdcd_detection_data = type { i32, i32, i32, i32, i32, i32, float, i32, i32 }
%struct.AVFilterFormatsConfig = type { ptr, ptr, ptr, ptr, ptr }
%struct.AVFilterLink = type { ptr, ptr, ptr, ptr, i32, i32, i32, i32, %struct.AVRational, i32, i32, i32, %struct.AVChannelLayout, %struct.AVRational, ptr, i32, %struct.AVFilterFormatsConfig, %struct.AVFilterFormatsConfig }
%struct.AVRational = type { i32, i32 }

@.str.13 = private unnamed_addr constant [75 x i8] c"bits_per_sample %d does not fit into sample format %s, falling back to 16\0A\00", align 1
@.str.14 = private unnamed_addr constant [45 x i8] c"Looking for %d-bit HDCD in sample format %s\0A\00", align 1
@.str.15 = private unnamed_addr constant [45 x i8] c"20 and 24-bit HDCD decoding is experimental\0A\00", align 1
@.str.16 = private unnamed_addr constant [65 x i8] c"HDCD decoding for sample rates other than 44100 is experimental\0A\00", align 1
@.str.17 = private unnamed_addr constant [40 x i8] c"CDT period: %dms (%u samples @44100Hz)\0A\00", align 1
@.str.18 = private unnamed_addr constant [41 x i8] c"process_stereo disabled (channels = %d)\0A\00", align 1
@.str.19 = private unnamed_addr constant [18 x i8] c"Process mode: %s\0A\00", align 1
@.str.20 = private unnamed_addr constant [33 x i8] c"process stereo channels together\00", align 1
@.str.21 = private unnamed_addr constant [32 x i8] c"process each channel separately\00", align 1
@.str.22 = private unnamed_addr constant [14 x i8] c"Force PE: %s\0A\00", align 1
@.str.23 = private unnamed_addr constant [3 x i8] c"on\00", align 1
@.str.24 = private unnamed_addr constant [4 x i8] c"off\00", align 1
@.str.25 = private unnamed_addr constant [23 x i8] c"Analyze mode: [%d] %s\0A\00", align 1
@ana_mode_str = internal constant [5 x ptr] [ptr @.str.26, ptr @.str.27, ptr @.str.28, ptr @.str.29, ptr @.str.30], align 16

; Function Attrs: nounwind uwtable
define internal void @hdcd_reset(ptr noundef %0, i32 noundef %1, i32 noundef %2) #1 {
  %4 = alloca ptr, align 8
  %5 = alloca i32, align 4
  %6 = alloca i32, align 4
  %7 = alloca i32, align 4
  %8 = alloca i64, align 8
  store ptr %0, ptr %4, align 8, !tbaa !33
  store i32 %1, ptr %5, align 4, !tbaa !32
  store i32 %2, ptr %6, align 4, !tbaa !32
  call void @llvm.lifetime.start.p0(i64 4, ptr %7) #7
  call void @llvm.lifetime.start.p0(i64 8, ptr %8) #7
  %9 = load i32, ptr %6, align 4, !tbaa !32
  %10 = zext i32 %9 to i64
  %11 = load i32, ptr %5, align 4, !tbaa !32
  %12 = zext i32 %11 to i64
  %13 = mul i64 %10, %12
  %14 = udiv i64 %13, 1000
  store i64 %14, ptr %8, align 8, !tbaa !137
  %15 = load ptr, ptr %4, align 8, !tbaa !33
  %16 = getelementptr inbounds nuw %struct.hdcd_state, ptr %15, i32 0, i32 0
  store i64 0, ptr %16, align 8, !tbaa !145
  %17 = load ptr, ptr %4, align 8, !tbaa !33
  %18 = getelementptr inbounds nuw %struct.hdcd_state, ptr %17, i32 0, i32 1
  store i8 32, ptr %18, align 8, !tbaa !141
  %19 = load ptr, ptr %4, align 8, !tbaa !33
  %20 = getelementptr inbounds nuw %struct.hdcd_state, ptr %19, i32 0, i32 2
  store i8 0, ptr %20, align 1, !tbaa !146
  %21 = load ptr, ptr %4, align 8, !tbaa !33
  %22 = getelementptr inbounds nuw %struct.hdcd_state, ptr %21, i32 0, i32 3
  store i8 0, ptr %22, align 2, !tbaa !126
  %23 = load ptr, ptr %4, align 8, !tbaa !33
  %24 = getelementptr inbounds nuw %struct.hdcd_state, ptr %23, i32 0, i32 6
  store i32 0, ptr %24, align 4, !tbaa !113
  %25 = load i64, ptr %8, align 8, !tbaa !137
  %26 = trunc i64 %25 to i32
  %27 = load ptr, ptr %4, align 8, !tbaa !33
  %28 = getelementptr inbounds nuw %struct.hdcd_state, ptr %27, i32 0, i32 5
  store i32 %26, ptr %28, align 8, !tbaa !103
  %29 = load ptr, ptr %4, align 8, !tbaa !33
  %30 = getelementptr inbounds nuw %struct.hdcd_state, ptr %29, i32 0, i32 4
  store i32 0, ptr %30, align 4, !tbaa !115
  %31 = load ptr, ptr %4, align 8, !tbaa !33
  %32 = getelementptr inbounds nuw %struct.hdcd_state, ptr %31, i32 0, i32 7
  store i32 0, ptr %32, align 8, !tbaa !35
  %33 = load ptr, ptr %4, align 8, !tbaa !33
  %34 = getelementptr inbounds nuw %struct.hdcd_state, ptr %33, i32 0, i32 8
  store i32 0, ptr %34, align 4, !tbaa !42
  %35 = load ptr, ptr %4, align 8, !tbaa !33
  %36 = getelementptr inbounds nuw %struct.hdcd_state, ptr %35, i32 0, i32 9
  store i32 0, ptr %36, align 8, !tbaa !38
  %37 = load ptr, ptr %4, align 8, !tbaa !33
  %38 = getelementptr inbounds nuw %struct.hdcd_state, ptr %37, i32 0, i32 10
  store i32 0, ptr %38, align 4, !tbaa !43
  %39 = load ptr, ptr %4, align 8, !tbaa !33
  %40 = getelementptr inbounds nuw %struct.hdcd_state, ptr %39, i32 0, i32 11
  store i32 0, ptr %40, align 8, !tbaa !39
  %41 = load ptr, ptr %4, align 8, !tbaa !33
  %42 = getelementptr inbounds nuw %struct.hdcd_state, ptr %41, i32 0, i32 12
  store i32 0, ptr %42, align 4, !tbaa !44
  %43 = load ptr, ptr %4, align 8, !tbaa !33
  %44 = getelementptr inbounds nuw %struct.hdcd_state, ptr %43, i32 0, i32 13
  store i32 0, ptr %44, align 8, !tbaa !40
  %45 = load ptr, ptr %4, align 8, !tbaa !33
  %46 = getelementptr inbounds nuw %struct.hdcd_state, ptr %45, i32 0, i32 14
  store i32 0, ptr %46, align 4, !tbaa !41
  store i32 0, ptr %7, align 4, !tbaa !32
  br label %47

47:                                               ; preds = %56, %3
  %48 = load i32, ptr %7, align 4, !tbaa !32
  %49 = icmp slt i32 %48, 16
  br i1 %49, label %50, label %59

50:                                               ; preds = %47
  %51 = load ptr, ptr %4, align 8, !tbaa !33
  %52 = getelementptr inbounds nuw %struct.hdcd_state, ptr %51, i32 0, i32 15
  %53 = load i32, ptr %7, align 4, !tbaa !32
  %54 = sext i32 %53 to i64
  %55 = getelementptr inbounds [16 x i32], ptr %52, i64 0, i64 %54
  store i32 0, ptr %55, align 4, !tbaa !32
  br label %56

56:                                               ; preds = %50
  %57 = load i32, ptr %7, align 4, !tbaa !32
  %58 = add nsw i32 %57, 1
  store i32 %58, ptr %7, align 4, !tbaa !32
  br label %47, !llvm.loop !149

59:                                               ; preds = %47
  %60 = load ptr, ptr %4, align 8, !tbaa !33
  %61 = getelementptr inbounds nuw %struct.hdcd_state, ptr %60, i32 0, i32 16
  store i32 0, ptr %61, align 8, !tbaa !46
  %62 = load ptr, ptr %4, align 8, !tbaa !33
  %63 = getelementptr inbounds nuw %struct.hdcd_state, ptr %62, i32 0, i32 17
  store i32 -1, ptr %63, align 4, !tbaa !45
  %64 = load i32, ptr %5, align 4, !tbaa !32
  %65 = load ptr, ptr %4, align 8, !tbaa !33
  %66 = getelementptr inbounds nuw %struct.hdcd_state, ptr %65, i32 0, i32 18
  store i32 %64, ptr %66, align 8, !tbaa !123
  %67 = load ptr, ptr %4, align 8, !tbaa !33
  %68 = getelementptr inbounds nuw %struct.hdcd_state, ptr %67, i32 0, i32 19
  store i32 0, ptr %68, align 4, !tbaa !124
  call void @llvm.lifetime.end.p0(i64 8, ptr %8) #7
  call void @llvm.lifetime.end.p0(i64 4, ptr %7) #7
  ret void
}

; Function Attrs: nounwind uwtable
define internal void @hdcd_detect_reset(ptr noundef %0) #1 {
  %2 = alloca ptr, align 8
  store ptr %0, ptr %2, align 8, !tbaa !107
  %3 = load ptr, ptr %2, align 8, !tbaa !107
  %4 = getelementptr inbounds nuw %struct.hdcd_detection_data, ptr %3, i32 0, i32 0
  store i32 0, ptr %4, align 4, !tbaa !121
  %5 = load ptr, ptr %2, align 8, !tbaa !107
  %6 = getelementptr inbounds nuw %struct.hdcd_detection_data, ptr %5, i32 0, i32 1
  store i32 0, ptr %6, align 4, !tbaa !118
  %7 = load ptr, ptr %2, align 8, !tbaa !107
  %8 = getelementptr inbounds nuw %struct.hdcd_detection_data, ptr %7, i32 0, i32 2
  store i32 0, ptr %8, align 4, !tbaa !110
  %9 = load ptr, ptr %2, align 8, !tbaa !107
  %10 = getelementptr inbounds nuw %struct.hdcd_detection_data, ptr %9, i32 0, i32 3
  store i32 0, ptr %10, align 4, !tbaa !109
  %11 = load ptr, ptr %2, align 8, !tbaa !107
  %12 = getelementptr inbounds nuw %struct.hdcd_detection_data, ptr %11, i32 0, i32 4
  store i32 0, ptr %12, align 4, !tbaa !119
  %13 = load ptr, ptr %2, align 8, !tbaa !107
  %14 = getelementptr inbounds nuw %struct.hdcd_detection_data, ptr %13, i32 0, i32 5
  store i32 0, ptr %14, align 4, !tbaa !117
  %15 = load ptr, ptr %2, align 8, !tbaa !107
  %16 = getelementptr inbounds nuw %struct.hdcd_detection_data, ptr %15, i32 0, i32 6
  store float 0.000000e+00, ptr %16, align 4, !tbaa !120
  %17 = load ptr, ptr %2, align 8, !tbaa !107
  %18 = getelementptr inbounds nuw %struct.hdcd_detection_data, ptr %17, i32 0, i32 7
  store i32 -1, ptr %18, align 4, !tbaa !112
  %19 = load ptr, ptr %2, align 8, !tbaa !107
  %20 = getelementptr inbounds nuw %struct.hdcd_detection_data, ptr %19, i32 0, i32 8
  store i32 0, ptr %20, align 4, !tbaa !111
  ret void
}

; Function Attrs: nounwind uwtable
define internal i32 @config_input(ptr noundef %0) #1 {
  %2 = alloca ptr, align 8
  %3 = alloca ptr, align 8
  %4 = alloca ptr, align 8
  %5 = alloca i32, align 4
  store ptr %0, ptr %2, align 8, !tbaa !64
  call void @llvm.lifetime.start.p0(i64 8, ptr %3) #7
  %6 = load ptr, ptr %2, align 8, !tbaa !64
  %7 = getelementptr inbounds nuw %struct.AVFilterLink, ptr %6, i32 0, i32 2
  %8 = load ptr, ptr %7, align 8, !tbaa !68
  store ptr %8, ptr %3, align 8, !tbaa !4
  call void @llvm.lifetime.start.p0(i64 8, ptr %4) #7
  %9 = load ptr, ptr %3, align 8, !tbaa !4
  %10 = getelementptr inbounds nuw %struct.AVFilterContext, ptr %9, i32 0, i32 9
  %11 = load ptr, ptr %10, align 8, !tbaa !9
  store ptr %11, ptr %4, align 8, !tbaa !22
  call void @llvm.lifetime.start.p0(i64 4, ptr %5) #7
  %12 = load ptr, ptr %2, align 8, !tbaa !64
  %13 = getelementptr inbounds nuw %struct.AVFilterLink, ptr %12, i32 0, i32 5
  %14 = load i32, ptr %13, align 4, !tbaa !82
  %15 = icmp eq i32 %14, 1
  br i1 %15, label %21, label %16

16:                                               ; preds = %1
  %17 = load ptr, ptr %2, align 8, !tbaa !64
  %18 = getelementptr inbounds nuw %struct.AVFilterLink, ptr %17, i32 0, i32 5
  %19 = load i32, ptr %18, align 4, !tbaa !82
  %20 = icmp eq i32 %19, 6
  br i1 %20, label %21, label %37

21:                                               ; preds = %16, %1
  %22 = load ptr, ptr %4, align 8, !tbaa !22
  %23 = getelementptr inbounds nuw %struct.HDCDContext, ptr %22, i32 0, i32 7
  %24 = load i32, ptr %23, align 4, !tbaa !76
  %25 = icmp ne i32 %24, 16
  br i1 %25, label %26, label %37

26:                                               ; preds = %21
  %27 = load ptr, ptr %3, align 8, !tbaa !4
  %28 = load ptr, ptr %4, align 8, !tbaa !22
  %29 = getelementptr inbounds nuw %struct.HDCDContext, ptr %28, i32 0, i32 7
  %30 = load i32, ptr %29, align 4, !tbaa !76
  %31 = load ptr, ptr %2, align 8, !tbaa !64
  %32 = getelementptr inbounds nuw %struct.AVFilterLink, ptr %31, i32 0, i32 5
  %33 = load i32, ptr %32, align 4, !tbaa !82
  %34 = call ptr @av_get_sample_fmt_name(i32 noundef %33)
  call void (ptr, i32, ptr, ...) @av_log(ptr noundef %27, i32 noundef 24, ptr noundef @.str.13, i32 noundef %30, ptr noundef %34)
  %35 = load ptr, ptr %4, align 8, !tbaa !22
  %36 = getelementptr inbounds nuw %struct.HDCDContext, ptr %35, i32 0, i32 7
  store i32 16, ptr %36, align 4, !tbaa !76
  br label %46

37:                                               ; preds = %21, %16
  %38 = load ptr, ptr %3, align 8, !tbaa !4
  %39 = load ptr, ptr %4, align 8, !tbaa !22
  %40 = getelementptr inbounds nuw %struct.HDCDContext, ptr %39, i32 0, i32 7
  %41 = load i32, ptr %40, align 4, !tbaa !76
  %42 = load ptr, ptr %2, align 8, !tbaa !64
  %43 = getelementptr inbounds nuw %struct.AVFilterLink, ptr %42, i32 0, i32 5
  %44 = load i32, ptr %43, align 4, !tbaa !82
  %45 = call ptr @av_get_sample_fmt_name(i32 noundef %44)
  call void (ptr, i32, ptr, ...) @av_log(ptr noundef %38, i32 noundef 40, ptr noundef @.str.14, i32 noundef %41, ptr noundef %45)
  br label %46

46:                                               ; preds = %37, %26
  %47 = load ptr, ptr %4, align 8, !tbaa !22
  %48 = getelementptr inbounds nuw %struct.HDCDContext, ptr %47, i32 0, i32 7
  %49 = load i32, ptr %48, align 4, !tbaa !76
  %50 = icmp ne i32 %49, 16
  br i1 %50, label %51, label %53

51:                                               ; preds = %46
  %52 = load ptr, ptr %3, align 8, !tbaa !4
  call void (ptr, i32, ptr, ...) @av_log(ptr noundef %52, i32 noundef 24, ptr noundef @.str.15)
  br label %53

53:                                               ; preds = %51, %46
  %54 = load ptr, ptr %2, align 8, !tbaa !64
  %55 = getelementptr inbounds nuw %struct.AVFilterLink, ptr %54, i32 0, i32 11
  %56 = load i32, ptr %55, align 8, !tbaa !100
  %57 = icmp ne i32 %56, 44100
  br i1 %57, label %58, label %60

58:                                               ; preds = %53
  %59 = load ptr, ptr %3, align 8, !tbaa !4
  call void (ptr, i32, ptr, ...) @av_log(ptr noundef %59, i32 noundef 24, ptr noundef @.str.16)
  br label %60

60:                                               ; preds = %58, %53
  %61 = load ptr, ptr %4, align 8, !tbaa !22
  %62 = getelementptr inbounds nuw %struct.HDCDContext, ptr %61, i32 0, i32 12
  call void @hdcd_detect_reset(ptr noundef %62)
  store i32 0, ptr %5, align 4, !tbaa !32
  br label %63

63:                                               ; preds = %78, %60
  %64 = load i32, ptr %5, align 4, !tbaa !32
  %65 = icmp slt i32 %64, 2
  br i1 %65, label %66, label %81

66:                                               ; preds = %63
  %67 = load ptr, ptr %4, align 8, !tbaa !22
  %68 = getelementptr inbounds nuw %struct.HDCDContext, ptr %67, i32 0, i32 1
  %69 = load i32, ptr %5, align 4, !tbaa !32
  %70 = sext i32 %69 to i64
  %71 = getelementptr inbounds [2 x %struct.hdcd_state], ptr %68, i64 0, i64 %70
  %72 = load ptr, ptr %2, align 8, !tbaa !64
  %73 = getelementptr inbounds nuw %struct.AVFilterLink, ptr %72, i32 0, i32 11
  %74 = load i32, ptr %73, align 8, !tbaa !100
  %75 = load ptr, ptr %4, align 8, !tbaa !22
  %76 = getelementptr inbounds nuw %struct.HDCDContext, ptr %75, i32 0, i32 5
  %77 = load i32, ptr %76, align 4, !tbaa !101
  call void @hdcd_reset(ptr noundef %71, i32 noundef %74, i32 noundef %77)
  br label %78

78:                                               ; preds = %66
  %79 = load i32, ptr %5, align 4, !tbaa !32
  %80 = add nsw i32 %79, 1
  store i32 %80, ptr %5, align 4, !tbaa !32
  br label %63, !llvm.loop !102

81:                                               ; preds = %63
  %82 = load ptr, ptr %3, align 8, !tbaa !4
  %83 = load ptr, ptr %4, align 8, !tbaa !22
  %84 = getelementptr inbounds nuw %struct.HDCDContext, ptr %83, i32 0, i32 5
  %85 = load i32, ptr %84, align 4, !tbaa !101
  %86 = load ptr, ptr %4, align 8, !tbaa !22
  %87 = getelementptr inbounds nuw %struct.HDCDContext, ptr %86, i32 0, i32 1
  %88 = getelementptr inbounds [2 x %struct.hdcd_state], ptr %87, i64 0, i64 0
  %89 = getelementptr inbounds nuw %struct.hdcd_state, ptr %88, i32 0, i32 5
  %90 = load i32, ptr %89, align 8, !tbaa !103
  call void (ptr, i32, ptr, ...) @av_log(ptr noundef %82, i32 noundef 40, ptr noundef @.str.17, i32 noundef %85, i32 noundef %90)
  %91 = load ptr, ptr %2, align 8, !tbaa !64
  %92 = getelementptr inbounds nuw %struct.AVFilterLink, ptr %91, i32 0, i32 12
  %93 = getelementptr inbounds nuw %struct.AVChannelLayout, ptr %92, i32 0, i32 1
  %94 = load i32, ptr %93, align 4, !tbaa !104
  %95 = icmp ne i32 %94, 2
  br i1 %95, label %96, label %109

96:                                               ; preds = %81
  %97 = load ptr, ptr %4, align 8, !tbaa !22
  %98 = getelementptr inbounds nuw %struct.HDCDContext, ptr %97, i32 0, i32 2
  %99 = load i32, ptr %98, align 8, !tbaa !98
  %100 = icmp ne i32 %99, 0
  br i1 %100, label %101, label %109

101:                                              ; preds = %96
  %102 = load ptr, ptr %3, align 8, !tbaa !4
  %103 = load ptr, ptr %2, align 8, !tbaa !64
  %104 = getelementptr inbounds nuw %struct.AVFilterLink, ptr %103, i32 0, i32 12
  %105 = getelementptr inbounds nuw %struct.AVChannelLayout, ptr %104, i32 0, i32 1
  %106 = load i32, ptr %105, align 4, !tbaa !104
  call void (ptr, i32, ptr, ...) @av_log(ptr noundef %102, i32 noundef 24, ptr noundef @.str.18, i32 noundef %106)
  %107 = load ptr, ptr %4, align 8, !tbaa !22
  %108 = getelementptr inbounds nuw %struct.HDCDContext, ptr %107, i32 0, i32 2
  store i32 0, ptr %108, align 8, !tbaa !98
  br label %109

109:                                              ; preds = %101, %96, %81
  %110 = load ptr, ptr %3, align 8, !tbaa !4
  %111 = load ptr, ptr %4, align 8, !tbaa !22
  %112 = getelementptr inbounds nuw %struct.HDCDContext, ptr %111, i32 0, i32 2
  %113 = load i32, ptr %112, align 8, !tbaa !98
  %114 = icmp ne i32 %113, 0
  %115 = select i1 %114, ptr @.str.20, ptr @.str.21
  call void (ptr, i32, ptr, ...) @av_log(ptr noundef %110, i32 noundef 40, ptr noundef @.str.19, ptr noundef %115)
  %116 = load ptr, ptr %3, align 8, !tbaa !4
  %117 = load ptr, ptr %4, align 8, !tbaa !22
  %118 = getelementptr inbounds nuw %struct.HDCDContext, ptr %117, i32 0, i32 3
  %119 = load i32, ptr %118, align 4, !tbaa !105
  %120 = icmp ne i32 %119, 0
  %121 = select i1 %120, ptr @.str.23, ptr @.str.24
  call void (ptr, i32, ptr, ...) @av_log(ptr noundef %116, i32 noundef 40, ptr noundef @.str.22, ptr noundef %121)
  %122 = load ptr, ptr %3, align 8, !tbaa !4
  %123 = load ptr, ptr %4, align 8, !tbaa !22
  %124 = getelementptr inbounds nuw %struct.HDCDContext, ptr %123, i32 0, i32 4
  %125 = load i32, ptr %124, align 8, !tbaa !106
  %126 = load ptr, ptr %4, align 8, !tbaa !22
  %127 = getelementptr inbounds nuw %struct.HDCDContext, ptr %126, i32 0, i32 4
  %128 = load i32, ptr %127, align 8, !tbaa !106
  %129 = sext i32 %128 to i64
  %130 = getelementptr inbounds [5 x ptr], ptr @ana_mode_str, i64 0, i64 %129
  %131 = load ptr, ptr %130, align 8, !tbaa !51
  call void (ptr, i32, ptr, ...) @av_log(ptr noundef %122, i32 noundef 40, ptr noundef @.str.25, i32 noundef %125, ptr noundef %131)
  call void @llvm.lifetime.end.p0(i64 4, ptr %5) #7
  call void @llvm.lifetime.end.p0(i64 8, ptr %4) #7
  call void @llvm.lifetime.end.p0(i64 8, ptr %3) #7
  ret i32 0
}