; Function Attrs: nounwind uwtable
define internal noundef i32 @config_input(ptr noundef readonly captures(none) %0) #1 {
  %2 = getelementptr inbounds nuw i8, ptr %0, i64 16
  %3 = load ptr, ptr %2, align 8, !tbaa !57
  %4 = getelementptr inbounds nuw i8, ptr %3, i64 72
  %5 = load ptr, ptr %4, align 8, !tbaa !4
  %6 = getelementptr inbounds nuw i8, ptr %0, i64 36
  %7 = load i32, ptr %6, align 4, !tbaa !74
  switch i32 %7, label %._crit_edge [
    i32 1, label %8
    i32 6, label %8
  ]

._crit_edge:                                      ; preds = %1
  %.phi.trans.insert = getelementptr inbounds nuw i8, ptr %5, i64 300
  %.pre = load i32, ptr %.phi.trans.insert, align 4, !tbaa !68
  br label %12

8:                                                ; preds = %1, %1
  %9 = getelementptr inbounds nuw i8, ptr %5, i64 300
  %10 = load i32, ptr %9, align 4, !tbaa !68
  %.not = icmp eq i32 %10, 16
  br i1 %.not, label %12, label %.thread

.thread:                                          ; preds = %8
  %11 = tail call ptr @av_get_sample_fmt_name(i32 noundef %7) #9
  tail call void (ptr, i32, ptr, ...) @av_log(ptr noundef nonnull %3, i32 noundef 24, ptr noundef nonnull @.str.13, i32 noundef %10, ptr noundef %11) #9
  store i32 16, ptr %9, align 4, !tbaa !68
  br label %18

12:                                               ; preds = %8, %._crit_edge
  %13 = phi i32 [ %.pre, %._crit_edge ], [ 16, %8 ]
  %14 = getelementptr inbounds nuw i8, ptr %5, i64 300
  %15 = tail call ptr @av_get_sample_fmt_name(i32 noundef %7) #9
  tail call void (ptr, i32, ptr, ...) @av_log(ptr noundef nonnull %3, i32 noundef 40, ptr noundef nonnull @.str.14, i32 noundef %13, ptr noundef %15) #9
  %.pre49 = load i32, ptr %14, align 4, !tbaa !68
  %16 = icmp eq i32 %.pre49, 16
  br i1 %16, label %18, label %17

17:                                               ; preds = %12
  tail call void (ptr, i32, ptr, ...) @av_log(ptr noundef nonnull %3, i32 noundef 24, ptr noundef nonnull @.str.15) #9
  br label %18

18:                                               ; preds = %.thread, %17, %12
  %19 = getelementptr inbounds nuw i8, ptr %0, i64 64
  %20 = load i32, ptr %19, align 8, !tbaa !107
  %.not41 = icmp eq i32 %20, 44100
  br i1 %.not41, label %22, label %21

21:                                               ; preds = %18
  tail call void (ptr, i32, ptr, ...) @av_log(ptr noundef nonnull %3, i32 noundef 24, ptr noundef nonnull @.str.16) #9
  br label %22

22:                                               ; preds = %21, %18
  %23 = getelementptr inbounds nuw i8, ptr %5, i64 328
  %24 = getelementptr inbounds nuw i8, ptr %5, i64 356
  tail call void @llvm.memset.p0.i64(ptr noundef nonnull align 4 dereferenceable(28) %23, i8 0, i64 28, i1 false)
  store i32 -1, ptr %24, align 4, !tbaa !91
  %25 = getelementptr inbounds nuw i8, ptr %5, i64 360
  store i32 0, ptr %25, align 4, !tbaa !90
  %26 = getelementptr inbounds nuw i8, ptr %5, i64 8
  %27 = getelementptr inbounds nuw i8, ptr %5, i64 292
  %.pre50 = load i32, ptr %27, align 4, !tbaa !108
  %28 = zext i32 %.pre50 to i64
  br label %29

29:                                               ; preds = %22, %29
  %30 = phi i1 [ true, %22 ], [ false, %29 ]
  %indvars.iv = phi i64 [ 0, %22 ], [ 1, %29 ]
  %31 = getelementptr inbounds nuw [2 x %struct.hdcd_state], ptr %26, i64 0, i64 %indvars.iv
  %32 = load i32, ptr %19, align 8, !tbaa !107
  %33 = zext i32 %32 to i64
  %34 = mul nuw i64 %28, %33
  %35 = udiv i64 %34, 1000
  store i64 0, ptr %31, align 8, !tbaa !109
  %36 = getelementptr inbounds nuw i8, ptr %31, i64 8
  store i8 32, ptr %36, align 8, !tbaa !110
  %37 = getelementptr inbounds nuw i8, ptr %31, i64 9
  store i8 0, ptr %37, align 1, !tbaa !111
  %38 = getelementptr inbounds nuw i8, ptr %31, i64 10
  store i8 0, ptr %38, align 2, !tbaa !101
  %39 = getelementptr inbounds nuw i8, ptr %31, i64 20
  store i32 0, ptr %39, align 4, !tbaa !92
  %40 = trunc i64 %35 to i32
  %41 = getelementptr inbounds nuw i8, ptr %31, i64 16
  store i32 %40, ptr %41, align 8, !tbaa !112
  %42 = getelementptr inbounds nuw i8, ptr %31, i64 12
  store i32 0, ptr %42, align 4, !tbaa !98
  %43 = getelementptr inbounds nuw i8, ptr %31, i64 24
  %44 = getelementptr inbounds nuw i8, ptr %31, i64 124
  tail call void @llvm.memset.p0.i64(ptr noundef nonnull align 8 dereferenceable(100) %43, i8 0, i64 100, i1 false)
  store i32 -1, ptr %44, align 4, !tbaa !39
  %45 = getelementptr inbounds nuw i8, ptr %31, i64 128
  store i32 %32, ptr %45, align 8, !tbaa !94
  %46 = getelementptr inbounds nuw i8, ptr %31, i64 132
  store i32 0, ptr %46, align 4, !tbaa !95
  br i1 %30, label %29, label %47, !llvm.loop !113

47:                                               ; preds = %29
  %48 = getelementptr inbounds nuw i8, ptr %5, i64 24
  %49 = load i32, ptr %48, align 8, !tbaa !112
  tail call void (ptr, i32, ptr, ...) @av_log(ptr noundef nonnull %3, i32 noundef 40, ptr noundef nonnull @.str.17, i32 noundef %.pre50, i32 noundef %49) #9
  %50 = getelementptr inbounds nuw i8, ptr %0, i64 76
  %51 = load i32, ptr %50, align 4, !tbaa !114
  %.not42 = icmp eq i32 %51, 2
  %.phi.trans.insert52 = getelementptr inbounds nuw i8, ptr %5, i64 280
  %.pre53 = load i32, ptr %.phi.trans.insert52, align 8, !tbaa !87
  %52 = icmp eq i32 %.pre53, 0
  br i1 %.not42, label %._crit_edge51, label %54

._crit_edge51:                                    ; preds = %47
  %53 = select i1 %52, ptr @.str.21, ptr @.str.20
  br label %56

54:                                               ; preds = %47
  br i1 %52, label %56, label %55

55:                                               ; preds = %54
  tail call void (ptr, i32, ptr, ...) @av_log(ptr noundef nonnull %3, i32 noundef 24, ptr noundef nonnull @.str.18, i32 noundef %51) #9
  store i32 0, ptr %.phi.trans.insert52, align 8, !tbaa !87
  br label %56

56:                                               ; preds = %._crit_edge51, %55, %54
  %.not44 = phi ptr [ %53, %._crit_edge51 ], [ @.str.21, %55 ], [ @.str.21, %54 ]
  tail call void (ptr, i32, ptr, ...) @av_log(ptr noundef nonnull %3, i32 noundef 40, ptr noundef nonnull @.str.19, ptr noundef nonnull %.not44) #9
  %57 = getelementptr inbounds nuw i8, ptr %5, i64 284
  %58 = load i32, ptr %57, align 4, !tbaa !102
  %.not45 = icmp eq i32 %58, 0
  %59 = select i1 %.not45, ptr @.str.24, ptr @.str.23
  tail call void (ptr, i32, ptr, ...) @av_log(ptr noundef nonnull %3, i32 noundef 40, ptr noundef nonnull @.str.22, ptr noundef nonnull %59) #9
  %60 = getelementptr inbounds nuw i8, ptr %5, i64 288
  %61 = load i32, ptr %60, align 8, !tbaa !93
  %62 = sext i32 %61 to i64
  %63 = getelementptr inbounds [5 x ptr], ptr @ana_mode_str, i64 0, i64 %62
  %64 = load ptr, ptr %63, align 8, !tbaa !46
  tail call void (ptr, i32, ptr, ...) @av_log(ptr noundef nonnull %3, i32 noundef 40, ptr noundef nonnull @.str.25, i32 noundef %61, ptr noundef %64) #9
  ret i32 0
}